(dp0
S'rList'
p1
(lp2
I1500
asS'jList'
p3
(lp4
I299
asS'lList'
p5
(lp6
cnumpy.core.multiarray
scalar
p7
(cnumpy
dtype
p8
(S'f8'
p9
I0
I1
tp10
Rp11
(I3
S'<'
p12
NNNI-1
I-1
I0
tp13
bS'\x00\x00\x00\x00\x00L\x9d@'
p14
tp15
Rp16
as.